
Timer_Driver.elf:     file format elf32-avr

Sections:
Idx Name          Size      VMA       LMA       File off  Algn
  0 .text         0000044e  00000000  00000000  00000074  2**1
                  CONTENTS, ALLOC, LOAD, READONLY, CODE
  1 .data         00000000  00800060  00800060  000004c2  2**0
                  CONTENTS, ALLOC, LOAD, DATA
  2 .bss          0000000b  00800060  00800060  000004c2  2**0
                  ALLOC
  3 .comment      00000030  00000000  00000000  000004c2  2**0
                  CONTENTS, READONLY
  4 .note.gnu.avr.deviceinfo 0000003c  00000000  00000000  000004f4  2**2
                  CONTENTS, READONLY
  5 .debug_info   000004e6  00000000  00000000  00000530  2**0
                  CONTENTS, READONLY, DEBUGGING
  6 .debug_abbrev 000004a3  00000000  00000000  00000a16  2**0
                  CONTENTS, READONLY, DEBUGGING
  7 .debug_line   00000116  00000000  00000000  00000eb9  2**0
                  CONTENTS, READONLY, DEBUGGING
  8 .debug_str    00000196  00000000  00000000  00000fcf  2**0
                  CONTENTS, READONLY, DEBUGGING

Disassembly of section .text:

00000000 <__vectors>:
   0:	0c 94 2a 00 	jmp	0x54	; 0x54 <__ctors_end>
   4:	0c 94 3c 00 	jmp	0x78	; 0x78 <__bad_interrupt>
   8:	0c 94 3c 00 	jmp	0x78	; 0x78 <__bad_interrupt>
   c:	0c 94 3c 00 	jmp	0x78	; 0x78 <__bad_interrupt>
  10:	0c 94 3c 00 	jmp	0x78	; 0x78 <__bad_interrupt>
  14:	0c 94 3c 00 	jmp	0x78	; 0x78 <__bad_interrupt>
  18:	0c 94 3c 00 	jmp	0x78	; 0x78 <__bad_interrupt>
  1c:	0c 94 88 01 	jmp	0x310	; 0x310 <__vector_7>
  20:	0c 94 3c 00 	jmp	0x78	; 0x78 <__bad_interrupt>
  24:	0c 94 3c 00 	jmp	0x78	; 0x78 <__bad_interrupt>
  28:	0c 94 3c 00 	jmp	0x78	; 0x78 <__bad_interrupt>
  2c:	0c 94 14 01 	jmp	0x228	; 0x228 <__vector_11>
  30:	0c 94 3c 00 	jmp	0x78	; 0x78 <__bad_interrupt>
  34:	0c 94 3c 00 	jmp	0x78	; 0x78 <__bad_interrupt>
  38:	0c 94 3c 00 	jmp	0x78	; 0x78 <__bad_interrupt>
  3c:	0c 94 3c 00 	jmp	0x78	; 0x78 <__bad_interrupt>
  40:	0c 94 3c 00 	jmp	0x78	; 0x78 <__bad_interrupt>
  44:	0c 94 3c 00 	jmp	0x78	; 0x78 <__bad_interrupt>
  48:	0c 94 3c 00 	jmp	0x78	; 0x78 <__bad_interrupt>
  4c:	0c 94 3c 00 	jmp	0x78	; 0x78 <__bad_interrupt>
  50:	0c 94 3c 00 	jmp	0x78	; 0x78 <__bad_interrupt>

00000054 <__ctors_end>:
  54:	11 24       	eor	r1, r1
  56:	1f be       	out	0x3f, r1	; 63
  58:	cf e5       	ldi	r28, 0x5F	; 95
  5a:	d8 e0       	ldi	r29, 0x08	; 8
  5c:	de bf       	out	0x3e, r29	; 62
  5e:	cd bf       	out	0x3d, r28	; 61

00000060 <__do_clear_bss>:
  60:	20 e0       	ldi	r18, 0x00	; 0
  62:	a0 e6       	ldi	r26, 0x60	; 96
  64:	b0 e0       	ldi	r27, 0x00	; 0
  66:	01 c0       	rjmp	.+2      	; 0x6a <.do_clear_bss_start>

00000068 <.do_clear_bss_loop>:
  68:	1d 92       	st	X+, r1

0000006a <.do_clear_bss_start>:
  6a:	ab 36       	cpi	r26, 0x6B	; 107
  6c:	b2 07       	cpc	r27, r18
  6e:	e1 f7       	brne	.-8      	; 0x68 <.do_clear_bss_loop>
  70:	0e 94 fd 00 	call	0x1fa	; 0x1fa <main>
  74:	0c 94 25 02 	jmp	0x44a	; 0x44a <_exit>

00000078 <__bad_interrupt>:
  78:	0c 94 00 00 	jmp	0	; 0x0 <__vectors>

0000007c <DIO_SetPinDir>:
  7c:	44 23       	and	r20, r20
  7e:	79 f1       	breq	.+94     	; 0xde <DIO_SetPinDir+0x62>
  80:	41 30       	cpi	r20, 0x01	; 1
  82:	09 f0       	breq	.+2      	; 0x86 <DIO_SetPinDir+0xa>
  84:	5f c0       	rjmp	.+190    	; 0x144 <DIO_SetPinDir+0xc8>
  86:	81 30       	cpi	r24, 0x01	; 1
  88:	79 f0       	breq	.+30     	; 0xa8 <DIO_SetPinDir+0x2c>
  8a:	28 f0       	brcs	.+10     	; 0x96 <DIO_SetPinDir+0x1a>
  8c:	82 30       	cpi	r24, 0x02	; 2
  8e:	a9 f0       	breq	.+42     	; 0xba <DIO_SetPinDir+0x3e>
  90:	83 30       	cpi	r24, 0x03	; 3
  92:	e1 f0       	breq	.+56     	; 0xcc <DIO_SetPinDir+0x50>
  94:	08 95       	ret
  96:	2a b3       	in	r18, 0x1a	; 26
  98:	81 e0       	ldi	r24, 0x01	; 1
  9a:	90 e0       	ldi	r25, 0x00	; 0
  9c:	01 c0       	rjmp	.+2      	; 0xa0 <DIO_SetPinDir+0x24>
  9e:	88 0f       	add	r24, r24
  a0:	6a 95       	dec	r22
  a2:	ea f7       	brpl	.-6      	; 0x9e <DIO_SetPinDir+0x22>
  a4:	82 2b       	or	r24, r18
  a6:	2c c0       	rjmp	.+88     	; 0x100 <DIO_SetPinDir+0x84>
  a8:	27 b3       	in	r18, 0x17	; 23
  aa:	81 e0       	ldi	r24, 0x01	; 1
  ac:	90 e0       	ldi	r25, 0x00	; 0
  ae:	01 c0       	rjmp	.+2      	; 0xb2 <DIO_SetPinDir+0x36>
  b0:	88 0f       	add	r24, r24
  b2:	6a 95       	dec	r22
  b4:	ea f7       	brpl	.-6      	; 0xb0 <DIO_SetPinDir+0x34>
  b6:	82 2b       	or	r24, r18
  b8:	2e c0       	rjmp	.+92     	; 0x116 <DIO_SetPinDir+0x9a>
  ba:	24 b3       	in	r18, 0x14	; 20
  bc:	81 e0       	ldi	r24, 0x01	; 1
  be:	90 e0       	ldi	r25, 0x00	; 0
  c0:	01 c0       	rjmp	.+2      	; 0xc4 <DIO_SetPinDir+0x48>
  c2:	88 0f       	add	r24, r24
  c4:	6a 95       	dec	r22
  c6:	ea f7       	brpl	.-6      	; 0xc2 <DIO_SetPinDir+0x46>
  c8:	82 2b       	or	r24, r18
  ca:	30 c0       	rjmp	.+96     	; 0x12c <DIO_SetPinDir+0xb0>
  cc:	21 b3       	in	r18, 0x11	; 17
  ce:	81 e0       	ldi	r24, 0x01	; 1
  d0:	90 e0       	ldi	r25, 0x00	; 0
  d2:	01 c0       	rjmp	.+2      	; 0xd6 <DIO_SetPinDir+0x5a>
  d4:	88 0f       	add	r24, r24
  d6:	6a 95       	dec	r22
  d8:	ea f7       	brpl	.-6      	; 0xd4 <DIO_SetPinDir+0x58>
  da:	82 2b       	or	r24, r18
  dc:	32 c0       	rjmp	.+100    	; 0x142 <DIO_SetPinDir+0xc6>
  de:	81 30       	cpi	r24, 0x01	; 1
  e0:	89 f0       	breq	.+34     	; 0x104 <DIO_SetPinDir+0x88>
  e2:	28 f0       	brcs	.+10     	; 0xee <DIO_SetPinDir+0x72>
  e4:	82 30       	cpi	r24, 0x02	; 2
  e6:	c9 f0       	breq	.+50     	; 0x11a <DIO_SetPinDir+0x9e>
  e8:	83 30       	cpi	r24, 0x03	; 3
  ea:	11 f1       	breq	.+68     	; 0x130 <DIO_SetPinDir+0xb4>
  ec:	08 95       	ret
  ee:	2a b3       	in	r18, 0x1a	; 26
  f0:	81 e0       	ldi	r24, 0x01	; 1
  f2:	90 e0       	ldi	r25, 0x00	; 0
  f4:	01 c0       	rjmp	.+2      	; 0xf8 <DIO_SetPinDir+0x7c>
  f6:	88 0f       	add	r24, r24
  f8:	6a 95       	dec	r22
  fa:	ea f7       	brpl	.-6      	; 0xf6 <DIO_SetPinDir+0x7a>
  fc:	80 95       	com	r24
  fe:	82 23       	and	r24, r18
 100:	8a bb       	out	0x1a, r24	; 26
 102:	08 95       	ret
 104:	27 b3       	in	r18, 0x17	; 23
 106:	81 e0       	ldi	r24, 0x01	; 1
 108:	90 e0       	ldi	r25, 0x00	; 0
 10a:	01 c0       	rjmp	.+2      	; 0x10e <DIO_SetPinDir+0x92>
 10c:	88 0f       	add	r24, r24
 10e:	6a 95       	dec	r22
 110:	ea f7       	brpl	.-6      	; 0x10c <DIO_SetPinDir+0x90>
 112:	80 95       	com	r24
 114:	82 23       	and	r24, r18
 116:	87 bb       	out	0x17, r24	; 23
 118:	08 95       	ret
 11a:	24 b3       	in	r18, 0x14	; 20
 11c:	81 e0       	ldi	r24, 0x01	; 1
 11e:	90 e0       	ldi	r25, 0x00	; 0
 120:	01 c0       	rjmp	.+2      	; 0x124 <DIO_SetPinDir+0xa8>
 122:	88 0f       	add	r24, r24
 124:	6a 95       	dec	r22
 126:	ea f7       	brpl	.-6      	; 0x122 <DIO_SetPinDir+0xa6>
 128:	80 95       	com	r24
 12a:	82 23       	and	r24, r18
 12c:	84 bb       	out	0x14, r24	; 20
 12e:	08 95       	ret
 130:	21 b3       	in	r18, 0x11	; 17
 132:	81 e0       	ldi	r24, 0x01	; 1
 134:	90 e0       	ldi	r25, 0x00	; 0
 136:	01 c0       	rjmp	.+2      	; 0x13a <DIO_SetPinDir+0xbe>
 138:	88 0f       	add	r24, r24
 13a:	6a 95       	dec	r22
 13c:	ea f7       	brpl	.-6      	; 0x138 <DIO_SetPinDir+0xbc>
 13e:	80 95       	com	r24
 140:	82 23       	and	r24, r18
 142:	81 bb       	out	0x11, r24	; 17
 144:	08 95       	ret

00000146 <DIO_TogglePin>:
 146:	81 30       	cpi	r24, 0x01	; 1
 148:	81 f0       	breq	.+32     	; 0x16a <DIO_TogglePin+0x24>
 14a:	28 f0       	brcs	.+10     	; 0x156 <DIO_TogglePin+0x10>
 14c:	82 30       	cpi	r24, 0x02	; 2
 14e:	b9 f0       	breq	.+46     	; 0x17e <DIO_TogglePin+0x38>
 150:	83 30       	cpi	r24, 0x03	; 3
 152:	f9 f0       	breq	.+62     	; 0x192 <DIO_TogglePin+0x4c>
 154:	08 95       	ret
 156:	2b b3       	in	r18, 0x1b	; 27
 158:	81 e0       	ldi	r24, 0x01	; 1
 15a:	90 e0       	ldi	r25, 0x00	; 0
 15c:	01 c0       	rjmp	.+2      	; 0x160 <DIO_TogglePin+0x1a>
 15e:	88 0f       	add	r24, r24
 160:	6a 95       	dec	r22
 162:	ea f7       	brpl	.-6      	; 0x15e <DIO_TogglePin+0x18>
 164:	82 27       	eor	r24, r18
 166:	8b bb       	out	0x1b, r24	; 27
 168:	08 95       	ret
 16a:	28 b3       	in	r18, 0x18	; 24
 16c:	81 e0       	ldi	r24, 0x01	; 1
 16e:	90 e0       	ldi	r25, 0x00	; 0
 170:	01 c0       	rjmp	.+2      	; 0x174 <DIO_TogglePin+0x2e>
 172:	88 0f       	add	r24, r24
 174:	6a 95       	dec	r22
 176:	ea f7       	brpl	.-6      	; 0x172 <DIO_TogglePin+0x2c>
 178:	82 27       	eor	r24, r18
 17a:	88 bb       	out	0x18, r24	; 24
 17c:	08 95       	ret
 17e:	25 b3       	in	r18, 0x15	; 21
 180:	81 e0       	ldi	r24, 0x01	; 1
 182:	90 e0       	ldi	r25, 0x00	; 0
 184:	01 c0       	rjmp	.+2      	; 0x188 <DIO_TogglePin+0x42>
 186:	88 0f       	add	r24, r24
 188:	6a 95       	dec	r22
 18a:	ea f7       	brpl	.-6      	; 0x186 <DIO_TogglePin+0x40>
 18c:	82 27       	eor	r24, r18
 18e:	85 bb       	out	0x15, r24	; 21
 190:	08 95       	ret
 192:	22 b3       	in	r18, 0x12	; 18
 194:	81 e0       	ldi	r24, 0x01	; 1
 196:	90 e0       	ldi	r25, 0x00	; 0
 198:	01 c0       	rjmp	.+2      	; 0x19c <DIO_TogglePin+0x56>
 19a:	88 0f       	add	r24, r24
 19c:	6a 95       	dec	r22
 19e:	ea f7       	brpl	.-6      	; 0x19a <DIO_TogglePin+0x54>
 1a0:	82 27       	eor	r24, r18
 1a2:	82 bb       	out	0x12, r24	; 18
 1a4:	08 95       	ret

000001a6 <LED_Init>:
 1a6:	81 30       	cpi	r24, 0x01	; 1
 1a8:	51 f0       	breq	.+20     	; 0x1be <LED_Init+0x18>
 1aa:	28 f0       	brcs	.+10     	; 0x1b6 <LED_Init+0x10>
 1ac:	82 30       	cpi	r24, 0x02	; 2
 1ae:	51 f0       	breq	.+20     	; 0x1c4 <LED_Init+0x1e>
 1b0:	83 30       	cpi	r24, 0x03	; 3
 1b2:	59 f0       	breq	.+22     	; 0x1ca <LED_Init+0x24>
 1b4:	08 95       	ret
 1b6:	41 e0       	ldi	r20, 0x01	; 1
 1b8:	67 e0       	ldi	r22, 0x07	; 7
 1ba:	81 e0       	ldi	r24, 0x01	; 1
 1bc:	09 c0       	rjmp	.+18     	; 0x1d0 <LED_Init+0x2a>
 1be:	41 e0       	ldi	r20, 0x01	; 1
 1c0:	64 e0       	ldi	r22, 0x04	; 4
 1c2:	05 c0       	rjmp	.+10     	; 0x1ce <LED_Init+0x28>
 1c4:	41 e0       	ldi	r20, 0x01	; 1
 1c6:	65 e0       	ldi	r22, 0x05	; 5
 1c8:	02 c0       	rjmp	.+4      	; 0x1ce <LED_Init+0x28>
 1ca:	41 e0       	ldi	r20, 0x01	; 1
 1cc:	66 e0       	ldi	r22, 0x06	; 6
 1ce:	80 e0       	ldi	r24, 0x00	; 0
 1d0:	0c 94 3e 00 	jmp	0x7c	; 0x7c <DIO_SetPinDir>

000001d4 <LED_Toggle>:
 1d4:	81 30       	cpi	r24, 0x01	; 1
 1d6:	49 f0       	breq	.+18     	; 0x1ea <LED_Toggle+0x16>
 1d8:	28 f0       	brcs	.+10     	; 0x1e4 <LED_Toggle+0x10>
 1da:	82 30       	cpi	r24, 0x02	; 2
 1dc:	41 f0       	breq	.+16     	; 0x1ee <LED_Toggle+0x1a>
 1de:	83 30       	cpi	r24, 0x03	; 3
 1e0:	41 f0       	breq	.+16     	; 0x1f2 <LED_Toggle+0x1e>
 1e2:	08 95       	ret
 1e4:	67 e0       	ldi	r22, 0x07	; 7
 1e6:	81 e0       	ldi	r24, 0x01	; 1
 1e8:	06 c0       	rjmp	.+12     	; 0x1f6 <LED_Toggle+0x22>
 1ea:	64 e0       	ldi	r22, 0x04	; 4
 1ec:	03 c0       	rjmp	.+6      	; 0x1f4 <LED_Toggle+0x20>
 1ee:	65 e0       	ldi	r22, 0x05	; 5
 1f0:	01 c0       	rjmp	.+2      	; 0x1f4 <LED_Toggle+0x20>
 1f2:	66 e0       	ldi	r22, 0x06	; 6
 1f4:	80 e0       	ldi	r24, 0x00	; 0
 1f6:	0c 94 a3 00 	jmp	0x146	; 0x146 <DIO_TogglePin>

000001fa <main>:
 1fa:	80 e0       	ldi	r24, 0x00	; 0
 1fc:	0e 94 d3 00 	call	0x1a6	; 0x1a6 <LED_Init>
 200:	81 e0       	ldi	r24, 0x01	; 1
 202:	0e 94 d3 00 	call	0x1a6	; 0x1a6 <LED_Init>
 206:	82 e0       	ldi	r24, 0x02	; 2
 208:	0e 94 d3 00 	call	0x1a6	; 0x1a6 <LED_Init>
 20c:	83 e0       	ldi	r24, 0x03	; 3
 20e:	0e 94 d3 00 	call	0x1a6	; 0x1a6 <LED_Init>
 212:	0e 94 e2 01 	call	0x3c4	; 0x3c4 <Timer1_Init>
 216:	68 ee       	ldi	r22, 0xE8	; 232
 218:	73 e0       	ldi	r23, 0x03	; 3
 21a:	80 e0       	ldi	r24, 0x00	; 0
 21c:	90 e0       	ldi	r25, 0x00	; 0
 21e:	0e 94 f0 01 	call	0x3e0	; 0x3e0 <Timer1_SetDelay>
 222:	0e 94 ec 01 	call	0x3d8	; 0x3d8 <Timer1_Start>
 226:	ff cf       	rjmp	.-2      	; 0x226 <main+0x2c>

00000228 <__vector_11>:
 228:	1f 92       	push	r1
 22a:	0f 92       	push	r0
 22c:	0f b6       	in	r0, 0x3f	; 63
 22e:	0f 92       	push	r0
 230:	11 24       	eor	r1, r1
 232:	2f 93       	push	r18
 234:	3f 93       	push	r19
 236:	4f 93       	push	r20
 238:	5f 93       	push	r21
 23a:	6f 93       	push	r22
 23c:	7f 93       	push	r23
 23e:	8f 93       	push	r24
 240:	9f 93       	push	r25
 242:	af 93       	push	r26
 244:	bf 93       	push	r27
 246:	ef 93       	push	r30
 248:	ff 93       	push	r31
 24a:	80 91 62 00 	lds	r24, 0x0062	; 0x800062 <counter.1794>
 24e:	90 91 63 00 	lds	r25, 0x0063	; 0x800063 <counter.1794+0x1>
 252:	a0 91 64 00 	lds	r26, 0x0064	; 0x800064 <counter.1794+0x2>
 256:	b0 91 65 00 	lds	r27, 0x0065	; 0x800065 <counter.1794+0x3>
 25a:	01 96       	adiw	r24, 0x01	; 1
 25c:	a1 1d       	adc	r26, r1
 25e:	b1 1d       	adc	r27, r1
 260:	80 93 62 00 	sts	0x0062, r24	; 0x800062 <counter.1794>
 264:	90 93 63 00 	sts	0x0063, r25	; 0x800063 <counter.1794+0x1>
 268:	a0 93 64 00 	sts	0x0064, r26	; 0x800064 <counter.1794+0x2>
 26c:	b0 93 65 00 	sts	0x0065, r27	; 0x800065 <counter.1794+0x3>
 270:	40 91 66 00 	lds	r20, 0x0066	; 0x800066 <Number_Of_OverFlows>
 274:	50 91 67 00 	lds	r21, 0x0067	; 0x800067 <Number_Of_OverFlows+0x1>
 278:	60 91 68 00 	lds	r22, 0x0068	; 0x800068 <Number_Of_OverFlows+0x2>
 27c:	70 91 69 00 	lds	r23, 0x0069	; 0x800069 <Number_Of_OverFlows+0x3>
 280:	84 17       	cp	r24, r20
 282:	95 07       	cpc	r25, r21
 284:	a6 07       	cpc	r26, r22
 286:	b7 07       	cpc	r27, r23
 288:	91 f5       	brne	.+100    	; 0x2ee <__vector_11+0xc6>
 28a:	80 91 6a 00 	lds	r24, 0x006A	; 0x80006a <Init_Value>
 28e:	82 bf       	out	0x32, r24	; 50
 290:	10 92 62 00 	sts	0x0062, r1	; 0x800062 <counter.1794>
 294:	10 92 63 00 	sts	0x0063, r1	; 0x800063 <counter.1794+0x1>
 298:	10 92 64 00 	sts	0x0064, r1	; 0x800064 <counter.1794+0x2>
 29c:	10 92 65 00 	sts	0x0065, r1	; 0x800065 <counter.1794+0x3>
 2a0:	80 e0       	ldi	r24, 0x00	; 0
 2a2:	0e 94 ea 00 	call	0x1d4	; 0x1d4 <LED_Toggle>
 2a6:	2f ef       	ldi	r18, 0xFF	; 255
 2a8:	87 e8       	ldi	r24, 0x87	; 135
 2aa:	93 e1       	ldi	r25, 0x13	; 19
 2ac:	21 50       	subi	r18, 0x01	; 1
 2ae:	80 40       	sbci	r24, 0x00	; 0
 2b0:	90 40       	sbci	r25, 0x00	; 0
 2b2:	e1 f7       	brne	.-8      	; 0x2ac <__vector_11+0x84>
 2b4:	00 c0       	rjmp	.+0      	; 0x2b6 <__vector_11+0x8e>
 2b6:	00 00       	nop
 2b8:	81 e0       	ldi	r24, 0x01	; 1
 2ba:	0e 94 ea 00 	call	0x1d4	; 0x1d4 <LED_Toggle>
 2be:	2f ef       	ldi	r18, 0xFF	; 255
 2c0:	87 e8       	ldi	r24, 0x87	; 135
 2c2:	93 e1       	ldi	r25, 0x13	; 19
 2c4:	21 50       	subi	r18, 0x01	; 1
 2c6:	80 40       	sbci	r24, 0x00	; 0
 2c8:	90 40       	sbci	r25, 0x00	; 0
 2ca:	e1 f7       	brne	.-8      	; 0x2c4 <__vector_11+0x9c>
 2cc:	00 c0       	rjmp	.+0      	; 0x2ce <__vector_11+0xa6>
 2ce:	00 00       	nop
 2d0:	82 e0       	ldi	r24, 0x02	; 2
 2d2:	0e 94 ea 00 	call	0x1d4	; 0x1d4 <LED_Toggle>
 2d6:	2f ef       	ldi	r18, 0xFF	; 255
 2d8:	87 e8       	ldi	r24, 0x87	; 135
 2da:	93 e1       	ldi	r25, 0x13	; 19
 2dc:	21 50       	subi	r18, 0x01	; 1
 2de:	80 40       	sbci	r24, 0x00	; 0
 2e0:	90 40       	sbci	r25, 0x00	; 0
 2e2:	e1 f7       	brne	.-8      	; 0x2dc <__vector_11+0xb4>
 2e4:	00 c0       	rjmp	.+0      	; 0x2e6 <__vector_11+0xbe>
 2e6:	00 00       	nop
 2e8:	83 e0       	ldi	r24, 0x03	; 3
 2ea:	0e 94 ea 00 	call	0x1d4	; 0x1d4 <LED_Toggle>
 2ee:	ff 91       	pop	r31
 2f0:	ef 91       	pop	r30
 2f2:	bf 91       	pop	r27
 2f4:	af 91       	pop	r26
 2f6:	9f 91       	pop	r25
 2f8:	8f 91       	pop	r24
 2fa:	7f 91       	pop	r23
 2fc:	6f 91       	pop	r22
 2fe:	5f 91       	pop	r21
 300:	4f 91       	pop	r20
 302:	3f 91       	pop	r19
 304:	2f 91       	pop	r18
 306:	0f 90       	pop	r0
 308:	0f be       	out	0x3f, r0	; 63
 30a:	0f 90       	pop	r0
 30c:	1f 90       	pop	r1
 30e:	18 95       	reti

00000310 <__vector_7>:
 310:	1f 92       	push	r1
 312:	0f 92       	push	r0
 314:	0f b6       	in	r0, 0x3f	; 63
 316:	0f 92       	push	r0
 318:	11 24       	eor	r1, r1
 31a:	2f 93       	push	r18
 31c:	3f 93       	push	r19
 31e:	4f 93       	push	r20
 320:	5f 93       	push	r21
 322:	6f 93       	push	r22
 324:	7f 93       	push	r23
 326:	8f 93       	push	r24
 328:	9f 93       	push	r25
 32a:	af 93       	push	r26
 32c:	bf 93       	push	r27
 32e:	ef 93       	push	r30
 330:	ff 93       	push	r31
 332:	80 91 60 00 	lds	r24, 0x0060	; 0x800060 <__DATA_REGION_ORIGIN__>
 336:	90 91 61 00 	lds	r25, 0x0061	; 0x800061 <__DATA_REGION_ORIGIN__+0x1>
 33a:	01 96       	adiw	r24, 0x01	; 1
 33c:	81 30       	cpi	r24, 0x01	; 1
 33e:	91 05       	cpc	r25, r1
 340:	29 f0       	breq	.+10     	; 0x34c <__vector_7+0x3c>
 342:	90 93 61 00 	sts	0x0061, r25	; 0x800061 <__DATA_REGION_ORIGIN__+0x1>
 346:	80 93 60 00 	sts	0x0060, r24	; 0x800060 <__DATA_REGION_ORIGIN__>
 34a:	2b c0       	rjmp	.+86     	; 0x3a2 <__vector_7+0x92>
 34c:	10 92 61 00 	sts	0x0061, r1	; 0x800061 <__DATA_REGION_ORIGIN__+0x1>
 350:	10 92 60 00 	sts	0x0060, r1	; 0x800060 <__DATA_REGION_ORIGIN__>
 354:	80 e0       	ldi	r24, 0x00	; 0
 356:	0e 94 ea 00 	call	0x1d4	; 0x1d4 <LED_Toggle>
 35a:	2f ef       	ldi	r18, 0xFF	; 255
 35c:	87 e8       	ldi	r24, 0x87	; 135
 35e:	93 e1       	ldi	r25, 0x13	; 19
 360:	21 50       	subi	r18, 0x01	; 1
 362:	80 40       	sbci	r24, 0x00	; 0
 364:	90 40       	sbci	r25, 0x00	; 0
 366:	e1 f7       	brne	.-8      	; 0x360 <__vector_7+0x50>
 368:	00 c0       	rjmp	.+0      	; 0x36a <__vector_7+0x5a>
 36a:	00 00       	nop
 36c:	81 e0       	ldi	r24, 0x01	; 1
 36e:	0e 94 ea 00 	call	0x1d4	; 0x1d4 <LED_Toggle>
 372:	2f ef       	ldi	r18, 0xFF	; 255
 374:	87 e8       	ldi	r24, 0x87	; 135
 376:	93 e1       	ldi	r25, 0x13	; 19
 378:	21 50       	subi	r18, 0x01	; 1
 37a:	80 40       	sbci	r24, 0x00	; 0
 37c:	90 40       	sbci	r25, 0x00	; 0
 37e:	e1 f7       	brne	.-8      	; 0x378 <__vector_7+0x68>
 380:	00 c0       	rjmp	.+0      	; 0x382 <__vector_7+0x72>
 382:	00 00       	nop
 384:	82 e0       	ldi	r24, 0x02	; 2
 386:	0e 94 ea 00 	call	0x1d4	; 0x1d4 <LED_Toggle>
 38a:	2f ef       	ldi	r18, 0xFF	; 255
 38c:	87 e8       	ldi	r24, 0x87	; 135
 38e:	93 e1       	ldi	r25, 0x13	; 19
 390:	21 50       	subi	r18, 0x01	; 1
 392:	80 40       	sbci	r24, 0x00	; 0
 394:	90 40       	sbci	r25, 0x00	; 0
 396:	e1 f7       	brne	.-8      	; 0x390 <__vector_7+0x80>
 398:	00 c0       	rjmp	.+0      	; 0x39a <__vector_7+0x8a>
 39a:	00 00       	nop
 39c:	83 e0       	ldi	r24, 0x03	; 3
 39e:	0e 94 ea 00 	call	0x1d4	; 0x1d4 <LED_Toggle>
 3a2:	ff 91       	pop	r31
 3a4:	ef 91       	pop	r30
 3a6:	bf 91       	pop	r27
 3a8:	af 91       	pop	r26
 3aa:	9f 91       	pop	r25
 3ac:	8f 91       	pop	r24
 3ae:	7f 91       	pop	r23
 3b0:	6f 91       	pop	r22
 3b2:	5f 91       	pop	r21
 3b4:	4f 91       	pop	r20
 3b6:	3f 91       	pop	r19
 3b8:	2f 91       	pop	r18
 3ba:	0f 90       	pop	r0
 3bc:	0f be       	out	0x3f, r0	; 63
 3be:	0f 90       	pop	r0
 3c0:	1f 90       	pop	r1
 3c2:	18 95       	reti

000003c4 <Timer1_Init>:
 3c4:	8e b5       	in	r24, 0x2e	; 46
 3c6:	88 60       	ori	r24, 0x08	; 8
 3c8:	8e bd       	out	0x2e, r24	; 46
 3ca:	89 b7       	in	r24, 0x39	; 57
 3cc:	80 61       	ori	r24, 0x10	; 16
 3ce:	89 bf       	out	0x39, r24	; 57
 3d0:	8f b7       	in	r24, 0x3f	; 63
 3d2:	80 68       	ori	r24, 0x80	; 128
 3d4:	8f bf       	out	0x3f, r24	; 63
 3d6:	08 95       	ret

000003d8 <Timer1_Start>:
 3d8:	8e b5       	in	r24, 0x2e	; 46
 3da:	85 60       	ori	r24, 0x05	; 5
 3dc:	8e bd       	out	0x2e, r24	; 46
 3de:	08 95       	ret

000003e0 <Timer1_SetDelay>:
 3e0:	9b 01       	movw	r18, r22
 3e2:	ac 01       	movw	r20, r24
 3e4:	21 3a       	cpi	r18, 0xA1	; 161
 3e6:	8f e0       	ldi	r24, 0x0F	; 15
 3e8:	38 07       	cpc	r19, r24
 3ea:	41 05       	cpc	r20, r1
 3ec:	51 05       	cpc	r21, r1
 3ee:	90 f4       	brcc	.+36     	; 0x414 <__EEPROM_REGION_LENGTH__+0x14>
 3f0:	a8 ee       	ldi	r26, 0xE8	; 232
 3f2:	b3 e0       	ldi	r27, 0x03	; 3
 3f4:	0e 94 0b 02 	call	0x416	; 0x416 <__muluhisi3>
 3f8:	dc 01       	movw	r26, r24
 3fa:	cb 01       	movw	r24, r22
 3fc:	26 e0       	ldi	r18, 0x06	; 6
 3fe:	b6 95       	lsr	r27
 400:	a7 95       	ror	r26
 402:	97 95       	ror	r25
 404:	87 95       	ror	r24
 406:	2a 95       	dec	r18
 408:	d1 f7       	brne	.-12     	; 0x3fe <Timer1_SetDelay+0x1e>
 40a:	bc 01       	movw	r22, r24
 40c:	61 50       	subi	r22, 0x01	; 1
 40e:	71 09       	sbc	r23, r1
 410:	7b bd       	out	0x2b, r23	; 43
 412:	6a bd       	out	0x2a, r22	; 42
 414:	08 95       	ret

00000416 <__muluhisi3>:
 416:	0e 94 16 02 	call	0x42c	; 0x42c <__umulhisi3>
 41a:	a5 9f       	mul	r26, r21
 41c:	90 0d       	add	r25, r0
 41e:	b4 9f       	mul	r27, r20
 420:	90 0d       	add	r25, r0
 422:	a4 9f       	mul	r26, r20
 424:	80 0d       	add	r24, r0
 426:	91 1d       	adc	r25, r1
 428:	11 24       	eor	r1, r1
 42a:	08 95       	ret

0000042c <__umulhisi3>:
 42c:	a2 9f       	mul	r26, r18
 42e:	b0 01       	movw	r22, r0
 430:	b3 9f       	mul	r27, r19
 432:	c0 01       	movw	r24, r0
 434:	a3 9f       	mul	r26, r19
 436:	70 0d       	add	r23, r0
 438:	81 1d       	adc	r24, r1
 43a:	11 24       	eor	r1, r1
 43c:	91 1d       	adc	r25, r1
 43e:	b2 9f       	mul	r27, r18
 440:	70 0d       	add	r23, r0
 442:	81 1d       	adc	r24, r1
 444:	11 24       	eor	r1, r1
 446:	91 1d       	adc	r25, r1
 448:	08 95       	ret

0000044a <_exit>:
 44a:	f8 94       	cli

0000044c <__stop_program>:
 44c:	ff cf       	rjmp	.-2      	; 0x44c <__stop_program>
